; Function Attrs: mustprogress nofree nounwind willreturn memory(argmem: read) uwtable
define dso_local noundef zeroext i1 @_ZN7cmValue10IsNOTFOUNDESt17basic_string_viewIcSt11char_traitsIcEE(i64 %0, ptr readonly captures(none) %1) local_unnamed_addr #3 align 2 personality ptr @__gxx_personality_v0 {
  %3 = icmp eq i64 %0, 8
  br i1 %3, label %_ZNSt11char_traitsIcE7compareEPKcS2_m.exit.i.i, label %5

_ZNSt11char_traitsIcE7compareEPKcS2_m.exit.i.i:   ; preds = %2
  %bcmp.i = tail call i32 @bcmp(ptr noundef nonnull dereferenceable(8) %1, ptr noundef nonnull dereferenceable(8) @.str, i64 8)
  %4 = icmp eq i32 %bcmp.i, 0
  br label %_ZSteqIcSt11char_traitsIcEEbSt17basic_string_viewIT_T0_ES5_.exit

5:                                                ; preds = %2
  %.not.i = icmp ult i64 %0, 9
  br i1 %.not.i, label %_ZSteqIcSt11char_traitsIcEEbSt17basic_string_viewIT_T0_ES5_.exit, label %_ZNSt11char_traitsIcE7compareEPKcS2_m.exit.i.i.i

_ZNSt11char_traitsIcE7compareEPKcS2_m.exit.i.i.i: ; preds = %5
  %6 = getelementptr i8, ptr %1, i64 %0
  %7 = getelementptr i8, ptr %6, i64 -9
  %bcmp.i12 = tail call i32 @bcmp(ptr noundef nonnull dereferenceable(9) %7, ptr noundef nonnull dereferenceable(9) @.str.1, i64 9)
  %8 = icmp eq i32 %bcmp.i12, 0
  br label %_ZSteqIcSt11char_traitsIcEEbSt17basic_string_viewIT_T0_ES5_.exit

_ZSteqIcSt11char_traitsIcEEbSt17basic_string_viewIT_T0_ES5_.exit: ; preds = %_ZNSt11char_traitsIcE7compareEPKcS2_m.exit.i.i.i, %_ZNSt11char_traitsIcE7compareEPKcS2_m.exit.i.i, %5
  %9 = phi i1 [ false, %5 ], [ %4, %_ZNSt11char_traitsIcE7compareEPKcS2_m.exit.i.i ], [ %8, %_ZNSt11char_traitsIcE7compareEPKcS2_m.exit.i.i.i ]
  ret i1 %9
}